; Function Attrs: nounwind uwtable
define hidden i32 @mbedtls_psa_cipher_encrypt(ptr noundef readonly captures(none) %0, ptr noundef %1, i64 noundef %2, i32 noundef %3, ptr noundef %4, i64 noundef %5, ptr noundef %6, i64 noundef %7, ptr noundef %8, i64 noundef %9, ptr noundef writeonly captures(none) %10) local_unnamed_addr #2 {
  %12 = alloca [16 x i8], align 16
  %13 = alloca %struct.mbedtls_psa_cipher_operation_t, align 8
  %14 = alloca i64, align 8
  %15 = alloca i64, align 8
  call void @llvm.lifetime.start.p0(i64 104, ptr nonnull %13) #8
  call void @llvm.memset.p0.i64(ptr noundef nonnull align 8 dereferenceable(104) %13, i8 0, i64 104, i1 false)
  call void @llvm.lifetime.start.p0(i64 8, ptr nonnull %14) #8
  call void @llvm.lifetime.start.p0(i64 8, ptr nonnull %15) #8
  %16 = call fastcc i32 @psa_cipher_setup(ptr noundef nonnull %13, ptr noundef readonly %0, ptr noundef %1, i32 noundef %3, i32 noundef 1)
  %.not = icmp eq i32 %16, 0
  br i1 %.not, label %17, label %mbedtls_psa_cipher_set_iv.exit.thread

17:                                               ; preds = %11
  %.not25 = icmp eq i64 %5, 0
  br i1 %.not25, label %25, label %18

18:                                               ; preds = %17
  %19 = getelementptr inbounds nuw i8, ptr %13, i64 4
  %20 = load i8, ptr %19, align 4, !tbaa !17
  %21 = zext i8 %20 to i64
  %.not.i = icmp eq i64 %5, %21
  br i1 %.not.i, label %mbedtls_psa_cipher_set_iv.exit, label %mbedtls_psa_cipher_set_iv.exit.thread

mbedtls_psa_cipher_set_iv.exit:                   ; preds = %18
  %22 = getelementptr inbounds nuw i8, ptr %13, i64 8
  %23 = call i32 @mbedtls_cipher_set_iv(ptr noundef nonnull %22, ptr noundef %4, i64 noundef %5) #8
  %24 = call i32 @mbedtls_to_psa_error(i32 noundef %23) #8
  %.not26 = icmp eq i32 %24, 0
  br i1 %.not26, label %25, label %mbedtls_psa_cipher_set_iv.exit.thread

25:                                               ; preds = %mbedtls_psa_cipher_set_iv.exit, %17
  %26 = call i32 @mbedtls_psa_cipher_update(ptr noundef nonnull %13, ptr noundef %6, i64 noundef %7, ptr noundef %8, i64 noundef %9, ptr noundef nonnull %14)
  %.not27 = icmp eq i32 %26, 0
  br i1 %.not27, label %27, label %mbedtls_psa_cipher_set_iv.exit.thread

27:                                               ; preds = %25
  %28 = load i64, ptr %14, align 8, !tbaa !7
  %29 = icmp eq ptr %8, null
  %30 = getelementptr inbounds nuw i8, ptr %8, i64 %28
  %31 = select i1 %29, ptr null, ptr %30
  %32 = sub i64 %9, %28
  call void @llvm.lifetime.start.p0(i64 16, ptr nonnull %12) #8
  %33 = getelementptr inbounds nuw i8, ptr %13, i64 8
  %34 = getelementptr inbounds nuw i8, ptr %13, i64 56
  %35 = load i64, ptr %34, align 8, !tbaa !18
  %.not.i29 = icmp eq i64 %35, 0
  br i1 %.not.i29, label %38, label %36

36:                                               ; preds = %27
  %37 = load i32, ptr %13, align 8, !tbaa !13
  switch i32 %37, label %38 [
    i32 71320576, label %mbedtls_psa_cipher_finish.exit.thread
    i32 71319552, label %mbedtls_psa_cipher_finish.exit.thread
  ]

38:                                               ; preds = %36, %27
  %39 = call i32 @mbedtls_cipher_finish(ptr noundef nonnull %33, ptr noundef nonnull %12, ptr noundef nonnull %15) #8
  %40 = call i32 @mbedtls_to_psa_error(i32 noundef %39) #8
  %.not14.i = icmp eq i32 %40, 0
  br i1 %.not14.i, label %41, label %mbedtls_psa_cipher_finish.exit.thread

41:                                               ; preds = %38
  %42 = load i64, ptr %15, align 8, !tbaa !7
  %43 = icmp eq i64 %42, 0
  br i1 %43, label %46, label %44

44:                                               ; preds = %41
  %.not15.i = icmp ult i64 %32, %42
  br i1 %.not15.i, label %mbedtls_psa_cipher_finish.exit.thread, label %45

45:                                               ; preds = %44
  call void @llvm.memcpy.p0.p0.i64(ptr align 1 %31, ptr nonnull align 16 %12, i64 %42, i1 false)
  br label %46

mbedtls_psa_cipher_finish.exit.thread:            ; preds = %38, %36, %36, %44
  %.0.i30.ph = phi i32 [ -138, %44 ], [ -135, %36 ], [ -135, %36 ], [ %40, %38 ]
  call void @mbedtls_platform_zeroize(ptr noundef nonnull %12, i64 noundef 16) #8
  call void @llvm.lifetime.end.p0(i64 16, ptr nonnull %12) #8
  br label %mbedtls_psa_cipher_set_iv.exit.thread

46:                                               ; preds = %45, %41
  call void @mbedtls_platform_zeroize(ptr noundef nonnull %12, i64 noundef 16) #8
  call void @llvm.lifetime.end.p0(i64 16, ptr nonnull %12) #8
  %47 = load i64, ptr %14, align 8, !tbaa !7
  %48 = load i64, ptr %15, align 8, !tbaa !7
  %49 = add i64 %48, %47
  store i64 %49, ptr %10, align 8, !tbaa !7
  br label %mbedtls_psa_cipher_set_iv.exit.thread

mbedtls_psa_cipher_set_iv.exit.thread:            ; preds = %18, %mbedtls_psa_cipher_finish.exit.thread, %25, %mbedtls_psa_cipher_set_iv.exit, %11, %46
  %.0 = phi i32 [ %16, %11 ], [ %24, %mbedtls_psa_cipher_set_iv.exit ], [ %26, %25 ], [ 0, %46 ], [ %.0.i30.ph, %mbedtls_psa_cipher_finish.exit.thread ], [ -135, %18 ]
  %50 = load i32, ptr %13, align 8, !tbaa !13
  %51 = and i32 %50, 2130706432
  %52 = icmp eq i32 %51, 67108864
  br i1 %52, label %53, label %mbedtls_psa_cipher_abort.exit

53:                                               ; preds = %mbedtls_psa_cipher_set_iv.exit.thread
  %54 = getelementptr inbounds nuw i8, ptr %13, i64 8
  call void @mbedtls_cipher_free(ptr noundef nonnull %54) #8
  br label %mbedtls_psa_cipher_abort.exit

mbedtls_psa_cipher_abort.exit:                    ; preds = %mbedtls_psa_cipher_set_iv.exit.thread, %53
  %.0.i31 = phi i32 [ 0, %53 ], [ -137, %mbedtls_psa_cipher_set_iv.exit.thread ]
  %55 = icmp eq i32 %.0, 0
  %..0 = select i1 %55, i32 %.0.i31, i32 %.0
  call void @llvm.lifetime.end.p0(i64 8, ptr nonnull %15) #8
  call void @llvm.lifetime.end.p0(i64 8, ptr nonnull %14) #8
  call void @llvm.lifetime.end.p0(i64 104, ptr nonnull %13) #8
  ret i32 %..0
}